target datalayout = "e-m:e-p270:32:32-p271:32:32-p272:64:64-i64:64-i128:128-f80:128-n8:16:32:64-S128"
target triple = "x86_64-pc-linux-gnu"

%struct.strbuf = type { i64, i64, ptr }
%struct.path_found_data = type { %struct.strbuf, i64 }
%struct.stat = type { i64, i64, i64, i32, i32, i32, i32, i64, i64, i64, i64, %struct.timespec, %struct.timespec, %struct.timespec, [3 x i64] }
%struct.timespec = type { i64, i64 }

@strbuf_slopbuf = external global [0 x i8], align 1
@.str.15 = private unnamed_addr constant [11 x i8] c"./strbuf.h\00", align 1
@.str.16 = private unnamed_addr constant [30 x i8] c"strbuf_setlen() beyond buffer\00", align 1

; Function Attrs: inlinehint nounwind uwtable
define internal i64 @strbuf_avail(ptr noundef %0) #5 {
  %2 = alloca ptr, align 8
  store ptr %0, ptr %2, align 8, !tbaa !85
  %3 = load ptr, ptr %2, align 8, !tbaa !85
  %4 = getelementptr inbounds nuw %struct.strbuf, ptr %3, i32 0, i32 0
  %5 = load i64, ptr %4, align 8, !tbaa !87
  %6 = icmp ne i64 %5, 0
  br i1 %6, label %7, label %16

7:                                                ; preds = %1
  %8 = load ptr, ptr %2, align 8, !tbaa !85
  %9 = getelementptr inbounds nuw %struct.strbuf, ptr %8, i32 0, i32 0
  %10 = load i64, ptr %9, align 8, !tbaa !87
  %11 = load ptr, ptr %2, align 8, !tbaa !85
  %12 = getelementptr inbounds nuw %struct.strbuf, ptr %11, i32 0, i32 1
  %13 = load i64, ptr %12, align 8, !tbaa !72
  %14 = sub i64 %10, %13
  %15 = sub i64 %14, 1
  br label %17

16:                                               ; preds = %1
  br label %17

17:                                               ; preds = %16, %7
  %18 = phi i64 [ %15, %7 ], [ 0, %16 ]
  ret i64 %18
}

; Function Attrs: inlinehint nounwind uwtable
define internal void @strbuf_addch(ptr noundef %0, i32 noundef %1) #5 {
  %3 = alloca ptr, align 8
  %4 = alloca i32, align 4
  store ptr %0, ptr %3, align 8, !tbaa !85
  store i32 %1, ptr %4, align 4, !tbaa !9
  %5 = load ptr, ptr %3, align 8, !tbaa !85
  %6 = call i64 @strbuf_avail(ptr noundef %5)
  %7 = icmp ne i64 %6, 0
  br i1 %7, label %10, label %8

8:                                                ; preds = %2
  %9 = load ptr, ptr %3, align 8, !tbaa !85
  call void @strbuf_grow(ptr noundef %9, i64 noundef 1)
  br label %10

10:                                               ; preds = %8, %2
  %11 = load i32, ptr %4, align 4, !tbaa !9
  %12 = trunc i32 %11 to i8
  %13 = load ptr, ptr %3, align 8, !tbaa !85
  %14 = getelementptr inbounds nuw %struct.strbuf, ptr %13, i32 0, i32 2
  %15 = load ptr, ptr %14, align 8, !tbaa !70
  %16 = load ptr, ptr %3, align 8, !tbaa !85
  %17 = getelementptr inbounds nuw %struct.strbuf, ptr %16, i32 0, i32 1
  %18 = load i64, ptr %17, align 8, !tbaa !72
  %19 = add i64 %18, 1
  store i64 %19, ptr %17, align 8, !tbaa !72
  %20 = getelementptr inbounds nuw i8, ptr %15, i64 %18
  store i8 %12, ptr %20, align 1, !tbaa !84
  %21 = load ptr, ptr %3, align 8, !tbaa !85
  %22 = getelementptr inbounds nuw %struct.strbuf, ptr %21, i32 0, i32 2
  %23 = load ptr, ptr %22, align 8, !tbaa !70
  %24 = load ptr, ptr %3, align 8, !tbaa !85
  %25 = getelementptr inbounds nuw %struct.strbuf, ptr %24, i32 0, i32 1
  %26 = load i64, ptr %25, align 8, !tbaa !72
  %27 = getelementptr inbounds nuw i8, ptr %23, i64 %26
  store i8 0, ptr %27, align 1, !tbaa !84
  ret void
}

; Function Attrs: inlinehint nounwind uwtable
define internal void @strbuf_addstr(ptr noundef %0, ptr noundef %1) #5 {
  %3 = alloca ptr, align 8
  %4 = alloca ptr, align 8
  store ptr %0, ptr %3, align 8, !tbaa !85
  store ptr %1, ptr %4, align 8, !tbaa !59
  %5 = load ptr, ptr %3, align 8, !tbaa !85
  %6 = load ptr, ptr %4, align 8, !tbaa !59
  %7 = load ptr, ptr %4, align 8, !tbaa !59
  %8 = call i64 @strlen(ptr noundef %7) #10
  call void @strbuf_add(ptr noundef %5, ptr noundef %6, i64 noundef %8)
  ret void
}

; Function Attrs: inlinehint nounwind uwtable
define internal void @strbuf_setlen(ptr noundef %0, i64 noundef %1) #5 {
  %3 = alloca ptr, align 8
  %4 = alloca i64, align 8
  store ptr %0, ptr %3, align 8, !tbaa !85
  store i64 %1, ptr %4, align 8, !tbaa !60
  %5 = load i64, ptr %4, align 8, !tbaa !60
  %6 = load ptr, ptr %3, align 8, !tbaa !85
  %7 = getelementptr inbounds nuw %struct.strbuf, ptr %6, i32 0, i32 0
  %8 = load i64, ptr %7, align 8, !tbaa !87
  %9 = icmp ne i64 %8, 0
  br i1 %9, label %10, label %15

10:                                               ; preds = %2
  %11 = load ptr, ptr %3, align 8, !tbaa !85
  %12 = getelementptr inbounds nuw %struct.strbuf, ptr %11, i32 0, i32 0
  %13 = load i64, ptr %12, align 8, !tbaa !87
  %14 = sub i64 %13, 1
  br label %16

15:                                               ; preds = %2
  br label %16

16:                                               ; preds = %15, %10
  %17 = phi i64 [ %14, %10 ], [ 0, %15 ]
  %18 = icmp ugt i64 %5, %17
  br i1 %18, label %19, label %20

19:                                               ; preds = %16
  call void (ptr, i32, ptr, ...) @BUG_fl(ptr noundef @.str.15, i32 noundef 167, ptr noundef @.str.16) #11
  unreachable

20:                                               ; preds = %16
  %21 = load i64, ptr %4, align 8, !tbaa !60
  %22 = load ptr, ptr %3, align 8, !tbaa !85
  %23 = getelementptr inbounds nuw %struct.strbuf, ptr %22, i32 0, i32 1
  store i64 %21, ptr %23, align 8, !tbaa !72
  %24 = load ptr, ptr %3, align 8, !tbaa !85
  %25 = getelementptr inbounds nuw %struct.strbuf, ptr %24, i32 0, i32 2
  %26 = load ptr, ptr %25, align 8, !tbaa !70
  %27 = icmp ne ptr %26, @strbuf_slopbuf
  br i1 %27, label %28, label %34

28:                                               ; preds = %20
  %29 = load ptr, ptr %3, align 8, !tbaa !85
  %30 = getelementptr inbounds nuw %struct.strbuf, ptr %29, i32 0, i32 2
  %31 = load ptr, ptr %30, align 8, !tbaa !70
  %32 = load i64, ptr %4, align 8, !tbaa !60
  %33 = getelementptr inbounds nuw i8, ptr %31, i64 %32
  store i8 0, ptr %33, align 1, !tbaa !84
  br label %35

34:                                               ; preds = %20
  br label %35

35:                                               ; preds = %34, %28
  ret void
}

; Function Attrs: nounwind uwtable
define internal i64 @max_common_dir_prefix(ptr noundef %0, ptr noundef %1) #0 {
  %3 = alloca ptr, align 8
  %4 = alloca ptr, align 8
  %5 = alloca i64, align 8
  %6 = alloca i64, align 8
  %7 = alloca i32, align 4
  store ptr %0, ptr %3, align 8, !tbaa !59
  store ptr %1, ptr %4, align 8, !tbaa !59
  call void @llvm.lifetime.start.p0(i64 8, ptr %5) #9
  store i64 0, ptr %5, align 8, !tbaa !60
  call void @llvm.lifetime.start.p0(i64 8, ptr %6) #9
  store i64 0, ptr %6, align 8, !tbaa !60
  br label %8

8:                                                ; preds = %49, %2
  %9 = load ptr, ptr %3, align 8, !tbaa !59
  %10 = load i64, ptr %6, align 8, !tbaa !60
  %11 = getelementptr inbounds nuw i8, ptr %9, i64 %10
  %12 = load i8, ptr %11, align 1, !tbaa !84
  %13 = sext i8 %12 to i32
  %14 = icmp ne i32 %13, 0
  br i1 %14, label %15, label %22

15:                                               ; preds = %8
  %16 = load ptr, ptr %4, align 8, !tbaa !59
  %17 = load i64, ptr %6, align 8, !tbaa !60
  %18 = getelementptr inbounds nuw i8, ptr %16, i64 %17
  %19 = load i8, ptr %18, align 1, !tbaa !84
  %20 = sext i8 %19 to i32
  %21 = icmp ne i32 %20, 0
  br label %22

22:                                               ; preds = %15, %8
  %23 = phi i1 [ false, %8 ], [ %21, %15 ]
  br i1 %23, label %25, label %24

24:                                               ; preds = %22
  store i32 2, ptr %7, align 4
  br label %52

25:                                               ; preds = %22
  %26 = load ptr, ptr %3, align 8, !tbaa !59
  %27 = load i64, ptr %6, align 8, !tbaa !60
  %28 = getelementptr inbounds nuw i8, ptr %26, i64 %27
  %29 = load i8, ptr %28, align 1, !tbaa !84
  %30 = sext i8 %29 to i32
  %31 = load ptr, ptr %4, align 8, !tbaa !59
  %32 = load i64, ptr %6, align 8, !tbaa !60
  %33 = getelementptr inbounds nuw i8, ptr %31, i64 %32
  %34 = load i8, ptr %33, align 1, !tbaa !84
  %35 = sext i8 %34 to i32
  %36 = icmp ne i32 %30, %35
  br i1 %36, label %37, label %38

37:                                               ; preds = %25
  store i32 2, ptr %7, align 4
  br label %52

38:                                               ; preds = %25
  %39 = load ptr, ptr %3, align 8, !tbaa !59
  %40 = load i64, ptr %6, align 8, !tbaa !60
  %41 = getelementptr inbounds nuw i8, ptr %39, i64 %40
  %42 = load i8, ptr %41, align 1, !tbaa !84
  %43 = sext i8 %42 to i32
  %44 = icmp eq i32 %43, 47
  br i1 %44, label %45, label %48

45:                                               ; preds = %38
  %46 = load i64, ptr %6, align 8, !tbaa !60
  %47 = add i64 %46, 1
  store i64 %47, ptr %5, align 8, !tbaa !60
  br label %48

48:                                               ; preds = %45, %38
  br label %49

49:                                               ; preds = %48
  %50 = load i64, ptr %6, align 8, !tbaa !60
  %51 = add i64 %50, 1
  store i64 %51, ptr %6, align 8, !tbaa !60
  br label %8, !llvm.loop !102

52:                                               ; preds = %37, %24
  call void @llvm.lifetime.end.p0(i64 8, ptr %6) #9
  br label %53

53:                                               ; preds = %52
  %54 = load i64, ptr %5, align 8, !tbaa !60
  store i32 1, ptr %7, align 4
  call void @llvm.lifetime.end.p0(i64 8, ptr %5) #9
  ret i64 %54
}

; Function Attrs: nounwind uwtable
define internal i32 @path_found(ptr noundef %0, ptr noundef %1) #0 {
  %3 = alloca i32, align 4
  %4 = alloca ptr, align 8
  %5 = alloca ptr, align 8
  %6 = alloca %struct.stat, align 8
  %7 = alloca i64, align 8
  %8 = alloca i32, align 4
  %9 = alloca ptr, align 8
  %10 = alloca ptr, align 8
  store ptr %0, ptr %4, align 8, !tbaa !59
  store ptr %1, ptr %5, align 8, !tbaa !98
  call void @llvm.lifetime.start.p0(i64 144, ptr %6) #9
  call void @llvm.lifetime.start.p0(i64 8, ptr %7) #9
  %11 = load ptr, ptr %5, align 8, !tbaa !98
  %12 = getelementptr inbounds nuw %struct.path_found_data, ptr %11, i32 0, i32 0
  %13 = getelementptr inbounds nuw %struct.strbuf, ptr %12, i32 0, i32 1
  %14 = load i64, ptr %13, align 8, !tbaa !100
  %15 = icmp ne i64 %14, 0
  br i1 %15, label %16, label %29

16:                                               ; preds = %2
  %17 = load ptr, ptr %4, align 8, !tbaa !59
  %18 = load ptr, ptr %5, align 8, !tbaa !98
  %19 = getelementptr inbounds nuw %struct.path_found_data, ptr %18, i32 0, i32 0
  %20 = getelementptr inbounds nuw %struct.strbuf, ptr %19, i32 0, i32 2
  %21 = load ptr, ptr %20, align 8, !tbaa !101
  %22 = load ptr, ptr %5, align 8, !tbaa !98
  %23 = getelementptr inbounds nuw %struct.path_found_data, ptr %22, i32 0, i32 0
  %24 = getelementptr inbounds nuw %struct.strbuf, ptr %23, i32 0, i32 1
  %25 = load i64, ptr %24, align 8, !tbaa !100
  %26 = call i32 @memcmp(ptr noundef %17, ptr noundef %21, i64 noundef %25) #10
  %27 = icmp ne i32 %26, 0
  br i1 %27, label %29, label %28

28:                                               ; preds = %16
  store i32 0, ptr %3, align 4
  store i32 1, ptr %8, align 4
  br label %92

29:                                               ; preds = %16, %2
  %30 = load ptr, ptr %5, align 8, !tbaa !98
  %31 = getelementptr inbounds nuw %struct.path_found_data, ptr %30, i32 0, i32 1
  %32 = load i64, ptr %31, align 8, !tbaa !94
  %33 = add i64 %32, 1
  store i64 %33, ptr %31, align 8, !tbaa !94
  %34 = load ptr, ptr %4, align 8, !tbaa !59
  %35 = call i32 @lstat64(ptr noundef %34, ptr noundef %6) #9
  %36 = icmp ne i32 %35, 0
  br i1 %36, label %38, label %37

37:                                               ; preds = %29
  store i32 1, ptr %3, align 4
  store i32 1, ptr %8, align 4
  br label %92

38:                                               ; preds = %29
  %39 = load ptr, ptr %4, align 8, !tbaa !59
  %40 = load ptr, ptr %5, align 8, !tbaa !98
  %41 = getelementptr inbounds nuw %struct.path_found_data, ptr %40, i32 0, i32 0
  %42 = getelementptr inbounds nuw %struct.strbuf, ptr %41, i32 0, i32 2
  %43 = load ptr, ptr %42, align 8, !tbaa !101
  %44 = call i64 @max_common_dir_prefix(ptr noundef %39, ptr noundef %43)
  store i64 %44, ptr %7, align 8, !tbaa !60
  %45 = load ptr, ptr %5, align 8, !tbaa !98
  %46 = getelementptr inbounds nuw %struct.path_found_data, ptr %45, i32 0, i32 0
  %47 = load i64, ptr %7, align 8, !tbaa !60
  call void @strbuf_setlen(ptr noundef %46, i64 noundef %47)
  br label %48

48:                                               ; preds = %90, %38
  br label %49

49:                                               ; preds = %48
  call void @llvm.lifetime.start.p0(i64 8, ptr %9) #9
  %50 = load ptr, ptr %4, align 8, !tbaa !59
  %51 = load ptr, ptr %5, align 8, !tbaa !98
  %52 = getelementptr inbounds nuw %struct.path_found_data, ptr %51, i32 0, i32 0
  %53 = getelementptr inbounds nuw %struct.strbuf, ptr %52, i32 0, i32 1
  %54 = load i64, ptr %53, align 8, !tbaa !100
  %55 = getelementptr inbounds nuw i8, ptr %50, i64 %54
  store ptr %55, ptr %9, align 8, !tbaa !59
  call void @llvm.lifetime.start.p0(i64 8, ptr %10) #9
  %56 = load ptr, ptr %9, align 8, !tbaa !59
  %57 = call ptr @strchr(ptr noundef %56, i32 noundef 47) #10
  store ptr %57, ptr %10, align 8, !tbaa !59
  %58 = load ptr, ptr %10, align 8, !tbaa !59
  %59 = icmp ne ptr %58, null
  br i1 %59, label %66, label %60

60:                                               ; preds = %49
  %61 = load ptr, ptr %5, align 8, !tbaa !98
  %62 = getelementptr inbounds nuw %struct.path_found_data, ptr %61, i32 0, i32 0
  %63 = load ptr, ptr %9, align 8, !tbaa !59
  call void @strbuf_addstr(ptr noundef %62, ptr noundef %63)
  %64 = load ptr, ptr %5, align 8, !tbaa !98
  %65 = getelementptr inbounds nuw %struct.path_found_data, ptr %64, i32 0, i32 0
  call void @strbuf_addch(ptr noundef %65, i32 noundef 47)
  store i32 3, ptr %8, align 4
  br label %88

66:                                               ; preds = %49
  %67 = load ptr, ptr %5, align 8, !tbaa !98
  %68 = getelementptr inbounds nuw %struct.path_found_data, ptr %67, i32 0, i32 0
  %69 = load ptr, ptr %9, align 8, !tbaa !59
  %70 = load ptr, ptr %10, align 8, !tbaa !59
  %71 = load ptr, ptr %9, align 8, !tbaa !59
  %72 = ptrtoint ptr %70 to i64
  %73 = ptrtoint ptr %71 to i64
  %74 = sub i64 %72, %73
  %75 = add nsw i64 %74, 1
  call void @strbuf_add(ptr noundef %68, ptr noundef %69, i64 noundef %75)
  %76 = load ptr, ptr %5, align 8, !tbaa !98
  %77 = getelementptr inbounds nuw %struct.path_found_data, ptr %76, i32 0, i32 1
  %78 = load i64, ptr %77, align 8, !tbaa !94
  %79 = add i64 %78, 1
  store i64 %79, ptr %77, align 8, !tbaa !94
  %80 = load ptr, ptr %5, align 8, !tbaa !98
  %81 = getelementptr inbounds nuw %struct.path_found_data, ptr %80, i32 0, i32 0
  %82 = getelementptr inbounds nuw %struct.strbuf, ptr %81, i32 0, i32 2
  %83 = load ptr, ptr %82, align 8, !tbaa !101
  %84 = call i32 @lstat64(ptr noundef %83, ptr noundef %6) #9
  %85 = icmp ne i32 %84, 0
  br i1 %85, label %86, label %87

86:                                               ; preds = %66
  store i32 0, ptr %3, align 4
  store i32 1, ptr %8, align 4
  br label %88

87:                                               ; preds = %66
  store i32 0, ptr %8, align 4
  br label %88

88:                                               ; preds = %87, %86, %60
  call void @llvm.lifetime.end.p0(i64 8, ptr %10) #9
  call void @llvm.lifetime.end.p0(i64 8, ptr %9) #9
  %89 = load i32, ptr %8, align 4
  switch i32 %89, label %92 [
    i32 0, label %90
    i32 3, label %91
  ]

90:                                               ; preds = %88
  br label %48

91:                                               ; preds = %88
  store i32 0, ptr %3, align 4
  store i32 1, ptr %8, align 4
  br label %92

92:                                               ; preds = %91, %88, %37, %28
  call void @llvm.lifetime.end.p0(i64 8, ptr %7) #9
  call void @llvm.lifetime.end.p0(i64 144, ptr %6) #9
  %93 = load i32, ptr %3, align 4
  ret i32 %93
}