; Function Attrs: nounwind uwtable
define internal fastcc range(i32 0, 2) i32 @path_found(ptr noundef %0, ptr noundef nonnull %1) unnamed_addr #0 {
  %3 = alloca %struct.stat, align 8
  call void @llvm.lifetime.start.p0(i64 144, ptr nonnull %3) #12
  %4 = getelementptr inbounds nuw i8, ptr %1, i64 8
  %5 = load i64, ptr %4, align 8, !tbaa !83
  %.not = icmp eq i64 %5, 0
  br i1 %.not, label %9, label %6

6:                                                ; preds = %2
  %7 = getelementptr inbounds nuw i8, ptr %1, i64 16
  %8 = load ptr, ptr %7, align 8, !tbaa !84
  %bcmp = tail call i32 @bcmp(ptr %0, ptr %8, i64 %5)
  %.not27 = icmp eq i32 %bcmp, 0
  br i1 %.not27, label %.thread, label %9

9:                                                ; preds = %6, %2
  %10 = getelementptr inbounds nuw i8, ptr %1, i64 24
  %11 = load i64, ptr %10, align 8, !tbaa !80
  %12 = add i64 %11, 1
  store i64 %12, ptr %10, align 8, !tbaa !80
  %13 = call i32 @lstat64(ptr noundef %0, ptr noundef nonnull %3) #12
  %.not28 = icmp eq i32 %13, 0
  br i1 %.not28, label %.thread, label %14

14:                                               ; preds = %9
  %15 = getelementptr inbounds nuw i8, ptr %1, i64 16
  %16 = load ptr, ptr %15, align 8, !tbaa !84
  %17 = load i8, ptr %0, align 1, !tbaa !62
  %.not17.i = icmp eq i8 %17, 0
  br i1 %.not17.i, label %max_common_dir_prefix.exit.thread, label %.lr.ph.i

.lr.ph.i:                                         ; preds = %14, %21
  %18 = phi i8 [ %25, %21 ], [ %17, %14 ]
  %.019.i = phi i64 [ %23, %21 ], [ 0, %14 ]
  %.01218.i = phi i64 [ %spec.select.i, %21 ], [ 0, %14 ]
  %19 = getelementptr inbounds nuw i8, ptr %16, i64 %.019.i
  %20 = load i8, ptr %19, align 1, !tbaa !62
  %.not16.i = icmp eq i8 %18, %20
  br i1 %.not16.i, label %21, label %max_common_dir_prefix.exit

21:                                               ; preds = %.lr.ph.i
  %22 = icmp eq i8 %18, 47
  %23 = add i64 %.019.i, 1
  %spec.select.i = select i1 %22, i64 %23, i64 %.01218.i
  %24 = getelementptr inbounds nuw i8, ptr %0, i64 %23
  %25 = load i8, ptr %24, align 1, !tbaa !62
  %.not.i = icmp eq i8 %25, 0
  br i1 %.not.i, label %max_common_dir_prefix.exit, label %.lr.ph.i, !llvm.loop !85

max_common_dir_prefix.exit:                       ; preds = %.lr.ph.i, %21
  %.012.lcssa.i = phi i64 [ %.01218.i, %.lr.ph.i ], [ %spec.select.i, %21 ]
  %26 = load i64, ptr %1, align 8, !tbaa !78
  %spec.select.i31 = tail call i64 @llvm.usub.sat.i64(i64 %26, i64 1)
  %27 = icmp ugt i64 %.012.lcssa.i, %spec.select.i31
  br i1 %27, label %28, label %max_common_dir_prefix.exit.thread

28:                                               ; preds = %max_common_dir_prefix.exit
  tail call void (ptr, i32, ptr, ...) @BUG_fl(ptr noundef nonnull @.str.15, i32 noundef 167, ptr noundef nonnull @.str.16) #14
  unreachable

max_common_dir_prefix.exit.thread:                ; preds = %14, %max_common_dir_prefix.exit
  %.012.lcssa.i35 = phi i64 [ %.012.lcssa.i, %max_common_dir_prefix.exit ], [ 0, %14 ]
  store i64 %.012.lcssa.i35, ptr %4, align 8, !tbaa !59
  %.not9.i = icmp eq ptr %16, @strbuf_slopbuf
  br i1 %.not9.i, label %strbuf_setlen.exit.preheader, label %29

29:                                               ; preds = %max_common_dir_prefix.exit.thread
  %30 = getelementptr inbounds nuw i8, ptr %16, i64 %.012.lcssa.i35
  store i8 0, ptr %30, align 1, !tbaa !62
  br label %strbuf_setlen.exit.preheader

strbuf_setlen.exit.preheader:                     ; preds = %max_common_dir_prefix.exit.thread, %29
  br label %strbuf_setlen.exit

strbuf_setlen.exit:                               ; preds = %strbuf_setlen.exit.preheader, %44
  %31 = load i64, ptr %4, align 8, !tbaa !83
  %32 = getelementptr inbounds nuw i8, ptr %0, i64 %31
  %33 = tail call ptr @strchr(ptr noundef nonnull dereferenceable(1) %32, i32 noundef 47) #13
  %.not29 = icmp eq ptr %33, null
  br i1 %.not29, label %34, label %44

34:                                               ; preds = %strbuf_setlen.exit
  %35 = tail call i64 @strlen(ptr noundef nonnull dereferenceable(1) %32) #13
  tail call void @strbuf_add(ptr noundef nonnull %1, ptr noundef nonnull %32, i64 noundef %35) #12
  %36 = load i64, ptr %1, align 8, !tbaa !78
  %.not.i.i = icmp eq i64 %36, 0
  br i1 %.not.i.i, label %strbuf_avail.exit.thread.i, label %strbuf_avail.exit.i

strbuf_avail.exit.i:                              ; preds = %34
  %37 = load i64, ptr %4, align 8, !tbaa !59
  %.neg.i = add i64 %37, 1
  %.not.i32 = icmp eq i64 %36, %.neg.i
  br i1 %.not.i32, label %strbuf_avail.exit.thread.i, label %strbuf_addch.exit

strbuf_avail.exit.thread.i:                       ; preds = %strbuf_avail.exit.i, %34
  tail call void @strbuf_grow(ptr noundef nonnull %1, i64 noundef 1) #12
  %.pre.i = load i64, ptr %4, align 8, !tbaa !59
  %.pre7.i = add i64 %.pre.i, 1
  br label %strbuf_addch.exit

strbuf_addch.exit:                                ; preds = %strbuf_avail.exit.i, %strbuf_avail.exit.thread.i
  %.pre-phi.i = phi i64 [ %.pre7.i, %strbuf_avail.exit.thread.i ], [ %.neg.i, %strbuf_avail.exit.i ]
  %38 = phi i64 [ %.pre.i, %strbuf_avail.exit.thread.i ], [ %37, %strbuf_avail.exit.i ]
  %39 = load ptr, ptr %15, align 8, !tbaa !61
  store i64 %.pre-phi.i, ptr %4, align 8, !tbaa !59
  %40 = getelementptr inbounds nuw i8, ptr %39, i64 %38
  store i8 47, ptr %40, align 1, !tbaa !62
  %41 = load ptr, ptr %15, align 8, !tbaa !61
  %42 = load i64, ptr %4, align 8, !tbaa !59
  %43 = getelementptr inbounds nuw i8, ptr %41, i64 %42
  store i8 0, ptr %43, align 1, !tbaa !62
  br label %.thread

44:                                               ; preds = %strbuf_setlen.exit
  %45 = ptrtoint ptr %33 to i64
  %46 = ptrtoint ptr %32 to i64
  %reass.sub = sub i64 %45, %46
  %47 = add i64 %reass.sub, 1
  tail call void @strbuf_add(ptr noundef nonnull %1, ptr noundef nonnull %32, i64 noundef %47) #12
  %48 = load i64, ptr %10, align 8, !tbaa !80
  %49 = add i64 %48, 1
  store i64 %49, ptr %10, align 8, !tbaa !80
  %50 = load ptr, ptr %15, align 8, !tbaa !84
  %51 = call i32 @lstat64(ptr noundef %50, ptr noundef nonnull %3) #12
  %.not30 = icmp eq i32 %51, 0
  br i1 %.not30, label %strbuf_setlen.exit, label %.thread

.thread:                                          ; preds = %44, %strbuf_addch.exit, %9, %6
  %.0 = phi i32 [ 0, %6 ], [ 1, %9 ], [ 0, %strbuf_addch.exit ], [ 0, %44 ]
  call void @llvm.lifetime.end.p0(i64 144, ptr nonnull %3) #12
  ret i32 %.0
}